; Function Attrs: mustprogress uwtable
define void @_ZN6icu_7513UnicodeString10setToBogusEv(ptr nocapture noundef nonnull align 8 dereferenceable(64) %this) local_unnamed_addr #5 align 2 {
entry:
  %fUnion.i = getelementptr inbounds i8, ptr %this, i64 8
  %0 = load i16, ptr %fUnion.i, align 8
  %1 = and i16 %0, 4
  %tobool.not.i = icmp eq i16 %1, 0
  br i1 %tobool.not.i, label %_ZN6icu_7513UnicodeString12releaseArrayEv.exit, label %land.lhs.true.i

land.lhs.true.i:                                  ; preds = %entry
  %fArray.i.i = getelementptr inbounds i8, ptr %this, i64 24
  %2 = load ptr, ptr %fArray.i.i, align 8
  %add.ptr.i.i = getelementptr inbounds i8, ptr %2, i64 -4
  %3 = atomicrmw sub ptr %add.ptr.i.i, i32 1 seq_cst, align 4
  %cmp.i = icmp eq i32 %3, 1
  br i1 %cmp.i, label %if.then.i, label %_ZN6icu_7513UnicodeString12releaseArrayEv.exit

if.then.i:                                        ; preds = %land.lhs.true.i
  %4 = load ptr, ptr %fArray.i.i, align 8
  %add.ptr.i = getelementptr inbounds i8, ptr %4, i64 -4
  tail call void @uprv_free_75(ptr noundef nonnull %add.ptr.i)
  br label %_ZN6icu_7513UnicodeString12releaseArrayEv.exit

_ZN6icu_7513UnicodeString12releaseArrayEv.exit:   ; preds = %entry, %land.lhs.true.i, %if.then.i
  store i16 1, ptr %fUnion.i, align 8
  %fArray = getelementptr inbounds i8, ptr %this, i64 24
  store ptr null, ptr %fArray, align 8
  %fCapacity = getelementptr inbounds i8, ptr %this, i64 16
  store i32 0, ptr %fCapacity, align 8
  ret void
}